target datalayout = "e-m:e-p270:32:32-p271:32:32-p272:64:64-i64:64-i128:128-f80:128-n8:16:32:64-S128"
target triple = "x86_64-pc-linux-gnu"

@.str.2 = private unnamed_addr constant [5 x i8] c"path\00", align 1
@.str.3 = private unnamed_addr constant [6 x i8] c"value\00", align 1
@.str.6 = private unnamed_addr constant [3 x i8] c"op\00", align 1
@.str.13 = private unnamed_addr constant [4 x i8] c"%s/\00", align 1

; Function Attrs: nounwind sspstrong uwtable
define internal void @encode_string_as_pointer(ptr noundef %0, ptr noundef %1) #0 {
  %3 = alloca ptr, align 8
  %4 = alloca ptr, align 8
  store ptr %0, ptr %3, align 8, !tbaa !15
  store ptr %1, ptr %4, align 8, !tbaa !15
  br label %5

5:                                                ; preds = %45, %2
  %6 = load ptr, ptr %4, align 8, !tbaa !15
  %7 = getelementptr inbounds i8, ptr %6, i64 0
  %8 = load i8, ptr %7, align 1, !tbaa !17
  %9 = zext i8 %8 to i32
  %10 = icmp ne i32 %9, 0
  br i1 %10, label %11, label %50

11:                                               ; preds = %5
  %12 = load ptr, ptr %4, align 8, !tbaa !15
  %13 = getelementptr inbounds i8, ptr %12, i64 0
  %14 = load i8, ptr %13, align 1, !tbaa !17
  %15 = zext i8 %14 to i32
  %16 = icmp eq i32 %15, 47
  br i1 %16, label %17, label %24

17:                                               ; preds = %11
  %18 = load ptr, ptr %3, align 8, !tbaa !15
  %19 = getelementptr inbounds i8, ptr %18, i64 0
  store i8 126, ptr %19, align 1, !tbaa !17
  %20 = load ptr, ptr %3, align 8, !tbaa !15
  %21 = getelementptr inbounds i8, ptr %20, i64 1
  store i8 49, ptr %21, align 1, !tbaa !17
  %22 = load ptr, ptr %3, align 8, !tbaa !15
  %23 = getelementptr inbounds nuw i8, ptr %22, i32 1
  store ptr %23, ptr %3, align 8, !tbaa !15
  br label %44

24:                                               ; preds = %11
  %25 = load ptr, ptr %4, align 8, !tbaa !15
  %26 = getelementptr inbounds i8, ptr %25, i64 0
  %27 = load i8, ptr %26, align 1, !tbaa !17
  %28 = zext i8 %27 to i32
  %29 = icmp eq i32 %28, 126
  br i1 %29, label %30, label %37

30:                                               ; preds = %24
  %31 = load ptr, ptr %3, align 8, !tbaa !15
  %32 = getelementptr inbounds i8, ptr %31, i64 0
  store i8 126, ptr %32, align 1, !tbaa !17
  %33 = load ptr, ptr %3, align 8, !tbaa !15
  %34 = getelementptr inbounds i8, ptr %33, i64 1
  store i8 48, ptr %34, align 1, !tbaa !17
  %35 = load ptr, ptr %3, align 8, !tbaa !15
  %36 = getelementptr inbounds nuw i8, ptr %35, i32 1
  store ptr %36, ptr %3, align 8, !tbaa !15
  br label %43

37:                                               ; preds = %24
  %38 = load ptr, ptr %4, align 8, !tbaa !15
  %39 = getelementptr inbounds i8, ptr %38, i64 0
  %40 = load i8, ptr %39, align 1, !tbaa !17
  %41 = load ptr, ptr %3, align 8, !tbaa !15
  %42 = getelementptr inbounds i8, ptr %41, i64 0
  store i8 %40, ptr %42, align 1, !tbaa !17
  br label %43

43:                                               ; preds = %37, %30
  br label %44

44:                                               ; preds = %43, %17
  br label %45

45:                                               ; preds = %44
  %46 = load ptr, ptr %4, align 8, !tbaa !15
  %47 = getelementptr inbounds nuw i8, ptr %46, i32 1
  store ptr %47, ptr %4, align 8, !tbaa !15
  %48 = load ptr, ptr %3, align 8, !tbaa !15
  %49 = getelementptr inbounds nuw i8, ptr %48, i32 1
  store ptr %49, ptr %3, align 8, !tbaa !15
  br label %5

50:                                               ; preds = %5
  %51 = load ptr, ptr %3, align 8, !tbaa !15
  %52 = getelementptr inbounds i8, ptr %51, i64 0
  store i8 0, ptr %52, align 1, !tbaa !17
  ret void
}

; Function Attrs: nounwind sspstrong uwtable
define internal i64 @pointer_encoded_length(ptr noundef %0) #0 {
  %2 = alloca ptr, align 8
  %3 = alloca i64, align 8
  store ptr %0, ptr %2, align 8, !tbaa !15
  call void @llvm.lifetime.start.p0(i64 8, ptr %3) #8
  store i64 0, ptr %3, align 8, !tbaa !8
  br label %4

4:                                                ; preds = %23, %1
  %5 = load ptr, ptr %2, align 8, !tbaa !15
  %6 = load i8, ptr %5, align 1, !tbaa !17
  %7 = zext i8 %6 to i32
  %8 = icmp ne i32 %7, 0
  br i1 %8, label %9, label %28

9:                                                ; preds = %4
  %10 = load ptr, ptr %2, align 8, !tbaa !15
  %11 = load i8, ptr %10, align 1, !tbaa !17
  %12 = zext i8 %11 to i32
  %13 = icmp eq i32 %12, 126
  br i1 %13, label %19, label %14

14:                                               ; preds = %9
  %15 = load ptr, ptr %2, align 8, !tbaa !15
  %16 = load i8, ptr %15, align 1, !tbaa !17
  %17 = zext i8 %16 to i32
  %18 = icmp eq i32 %17, 47
  br i1 %18, label %19, label %22

19:                                               ; preds = %14, %9
  %20 = load i64, ptr %3, align 8, !tbaa !8
  %21 = add i64 %20, 1
  store i64 %21, ptr %3, align 8, !tbaa !8
  br label %22

22:                                               ; preds = %19, %14
  br label %23

23:                                               ; preds = %22
  %24 = load ptr, ptr %2, align 8, !tbaa !15
  %25 = getelementptr inbounds nuw i8, ptr %24, i32 1
  store ptr %25, ptr %2, align 8, !tbaa !15
  %26 = load i64, ptr %3, align 8, !tbaa !8
  %27 = add i64 %26, 1
  store i64 %27, ptr %3, align 8, !tbaa !8
  br label %4

28:                                               ; preds = %4
  %29 = load i64, ptr %3, align 8, !tbaa !8
  call void @llvm.lifetime.end.p0(i64 8, ptr %3) #8
  ret i64 %29
}

; Function Attrs: nounwind sspstrong uwtable
define internal void @compose_patch(ptr noundef %0, ptr noundef %1, ptr noundef %2, ptr noundef %3, ptr noundef %4) #0 {
  %6 = alloca ptr, align 8
  %7 = alloca ptr, align 8
  %8 = alloca ptr, align 8
  %9 = alloca ptr, align 8
  %10 = alloca ptr, align 8
  %11 = alloca ptr, align 8
  %12 = alloca i32, align 4
  %13 = alloca i64, align 8
  %14 = alloca i64, align 8
  %15 = alloca ptr, align 8
  store ptr %0, ptr %6, align 8, !tbaa !3
  store ptr %1, ptr %7, align 8, !tbaa !15
  store ptr %2, ptr %8, align 8, !tbaa !15
  store ptr %3, ptr %9, align 8, !tbaa !15
  store ptr %4, ptr %10, align 8, !tbaa !3
  call void @llvm.lifetime.start.p0(i64 8, ptr %11) #8
  store ptr null, ptr %11, align 8, !tbaa !3
  %16 = load ptr, ptr %6, align 8, !tbaa !3
  %17 = icmp eq ptr %16, null
  br i1 %17, label %24, label %18

18:                                               ; preds = %5
  %19 = load ptr, ptr %7, align 8, !tbaa !15
  %20 = icmp eq ptr %19, null
  br i1 %20, label %24, label %21

21:                                               ; preds = %18
  %22 = load ptr, ptr %8, align 8, !tbaa !15
  %23 = icmp eq ptr %22, null
  br i1 %23, label %24, label %25

24:                                               ; preds = %21, %18, %5
  store i32 1, ptr %12, align 4
  br label %77

25:                                               ; preds = %21
  %26 = call ptr @cJSON_CreateObject()
  store ptr %26, ptr %11, align 8, !tbaa !3
  %27 = load ptr, ptr %11, align 8, !tbaa !3
  %28 = icmp eq ptr %27, null
  br i1 %28, label %29, label %30

29:                                               ; preds = %25
  store i32 1, ptr %12, align 4
  br label %77

30:                                               ; preds = %25
  %31 = load ptr, ptr %11, align 8, !tbaa !3
  %32 = load ptr, ptr %7, align 8, !tbaa !15
  %33 = call ptr @cJSON_CreateString(ptr noundef %32)
  %34 = call i32 @cJSON_AddItemToObject(ptr noundef %31, ptr noundef @.str.6, ptr noundef %33)
  %35 = load ptr, ptr %9, align 8, !tbaa !15
  %36 = icmp eq ptr %35, null
  br i1 %36, label %37, label %42

37:                                               ; preds = %30
  %38 = load ptr, ptr %11, align 8, !tbaa !3
  %39 = load ptr, ptr %8, align 8, !tbaa !15
  %40 = call ptr @cJSON_CreateString(ptr noundef %39)
  %41 = call i32 @cJSON_AddItemToObject(ptr noundef %38, ptr noundef @.str.2, ptr noundef %40)
  br label %65

42:                                               ; preds = %30
  call void @llvm.lifetime.start.p0(i64 8, ptr %13) #8
  %43 = load ptr, ptr %9, align 8, !tbaa !15
  %44 = call i64 @pointer_encoded_length(ptr noundef %43)
  store i64 %44, ptr %13, align 8, !tbaa !8
  call void @llvm.lifetime.start.p0(i64 8, ptr %14) #8
  %45 = load ptr, ptr %8, align 8, !tbaa !15
  %46 = call i64 @strlen(ptr noundef %45) #9
  store i64 %46, ptr %14, align 8, !tbaa !8
  call void @llvm.lifetime.start.p0(i64 8, ptr %15) #8
  %47 = load i64, ptr %14, align 8, !tbaa !8
  %48 = load i64, ptr %13, align 8, !tbaa !8
  %49 = add i64 %47, %48
  %50 = add i64 %49, 2
  %51 = call ptr @cJSON_malloc(i64 noundef %50)
  store ptr %51, ptr %15, align 8, !tbaa !15
  %52 = load ptr, ptr %15, align 8, !tbaa !15
  %53 = load ptr, ptr %8, align 8, !tbaa !15
  %54 = call i32 (ptr, ptr, ...) @sprintf(ptr noundef %52, ptr noundef @.str.13, ptr noundef %53) #8
  %55 = load ptr, ptr %15, align 8, !tbaa !15
  %56 = load i64, ptr %14, align 8, !tbaa !8
  %57 = getelementptr inbounds nuw i8, ptr %55, i64 %56
  %58 = getelementptr inbounds i8, ptr %57, i64 1
  %59 = load ptr, ptr %9, align 8, !tbaa !15
  call void @encode_string_as_pointer(ptr noundef %58, ptr noundef %59)
  %60 = load ptr, ptr %11, align 8, !tbaa !3
  %61 = load ptr, ptr %15, align 8, !tbaa !15
  %62 = call ptr @cJSON_CreateString(ptr noundef %61)
  %63 = call i32 @cJSON_AddItemToObject(ptr noundef %60, ptr noundef @.str.2, ptr noundef %62)
  %64 = load ptr, ptr %15, align 8, !tbaa !15
  call void @cJSON_free(ptr noundef %64)
  call void @llvm.lifetime.end.p0(i64 8, ptr %15) #8
  call void @llvm.lifetime.end.p0(i64 8, ptr %14) #8
  call void @llvm.lifetime.end.p0(i64 8, ptr %13) #8
  br label %65

65:                                               ; preds = %42, %37
  %66 = load ptr, ptr %10, align 8, !tbaa !3
  %67 = icmp ne ptr %66, null
  br i1 %67, label %68, label %73

68:                                               ; preds = %65
  %69 = load ptr, ptr %11, align 8, !tbaa !3
  %70 = load ptr, ptr %10, align 8, !tbaa !3
  %71 = call ptr @cJSON_Duplicate(ptr noundef %70, i32 noundef 1)
  %72 = call i32 @cJSON_AddItemToObject(ptr noundef %69, ptr noundef @.str.3, ptr noundef %71)
  br label %73

73:                                               ; preds = %68, %65
  %74 = load ptr, ptr %6, align 8, !tbaa !3
  %75 = load ptr, ptr %11, align 8, !tbaa !3
  %76 = call i32 @cJSON_AddItemToArray(ptr noundef %74, ptr noundef %75)
  store i32 0, ptr %12, align 4
  br label %77

77:                                               ; preds = %73, %29, %24
  call void @llvm.lifetime.end.p0(i64 8, ptr %11) #8
  %78 = load i32, ptr %12, align 4
  switch i32 %78, label %80 [
    i32 0, label %79
    i32 1, label %79
  ]

79:                                               ; preds = %77, %77
  ret void

80:                                               ; preds = %77
  unreachable
}