; Function Attrs: nounwind sspstrong uwtable
define internal fastcc void @compose_patch(ptr noundef %0, ptr noundef %1, ptr noundef %2, ptr noundef readonly %3, ptr noundef %4) unnamed_addr #0 {
  %6 = icmp eq ptr %0, null
  %7 = icmp eq ptr %1, null
  %or.cond = or i1 %6, %7
  %8 = icmp eq ptr %2, null
  %or.cond3 = or i1 %or.cond, %8
  br i1 %or.cond3, label %48, label %9

9:                                                ; preds = %5
  %10 = tail call ptr @cJSON_CreateObject() #13
  %11 = icmp eq ptr %10, null
  br i1 %11, label %48, label %12

12:                                               ; preds = %9
  %13 = tail call ptr @cJSON_CreateString(ptr noundef nonnull %1) #13
  %14 = tail call i32 @cJSON_AddItemToObject(ptr noundef nonnull %10, ptr noundef nonnull @.str.6, ptr noundef %13) #13
  %15 = icmp eq ptr %3, null
  br i1 %15, label %16, label %.preheader

16:                                               ; preds = %12
  %17 = tail call ptr @cJSON_CreateString(ptr noundef nonnull %2) #13
  %18 = tail call i32 @cJSON_AddItemToObject(ptr noundef nonnull %10, ptr noundef nonnull @.str.2, ptr noundef %17) #13
  br label %42

.preheader:                                       ; preds = %12, %22
  %.06.i = phi ptr [ %23, %22 ], [ %3, %12 ]
  %.0.i = phi i64 [ %24, %22 ], [ 0, %12 ]
  %19 = load i8, ptr %.06.i, align 1, !tbaa !13
  switch i8 %19, label %22 [
    i8 0, label %pointer_encoded_length.exit
    i8 126, label %20
    i8 47, label %20
  ]

20:                                               ; preds = %.preheader, %.preheader
  %21 = add i64 %.0.i, 1
  br label %22

22:                                               ; preds = %20, %.preheader
  %.1.i = phi i64 [ %21, %20 ], [ %.0.i, %.preheader ]
  %23 = getelementptr inbounds nuw i8, ptr %.06.i, i64 1
  %24 = add i64 %.1.i, 1
  br label %.preheader

pointer_encoded_length.exit:                      ; preds = %.preheader
  %25 = tail call i64 @strlen(ptr noundef nonnull dereferenceable(1) %2) #14
  %26 = add i64 %.0.i, 2
  %27 = add i64 %26, %25
  %28 = tail call ptr @cJSON_malloc(i64 noundef %27) #13
  %29 = tail call i32 (ptr, ptr, ...) @sprintf(ptr noundef nonnull dereferenceable(1) %28, ptr noundef nonnull dereferenceable(1) @.str.13, ptr noundef nonnull %2) #13
  %30 = getelementptr inbounds nuw i8, ptr %28, i64 %25
  br label %31

31:                                               ; preds = %38, %pointer_encoded_length.exit
  %.pn = phi ptr [ %30, %pointer_encoded_length.exit ], [ %.1.i34, %38 ]
  %.0.i33 = phi ptr [ %3, %pointer_encoded_length.exit ], [ %39, %38 ]
  %.014.i = getelementptr inbounds nuw i8, ptr %.pn, i64 1
  %32 = load i8, ptr %.0.i33, align 1, !tbaa !13
  switch i8 %32, label %37 [
    i8 0, label %encode_string_as_pointer.exit
    i8 47, label %33
    i8 126, label %35
  ]

33:                                               ; preds = %31
  store i8 126, ptr %.014.i, align 1, !tbaa !13
  %34 = getelementptr inbounds nuw i8, ptr %.pn, i64 2
  store i8 49, ptr %34, align 1, !tbaa !13
  br label %38

35:                                               ; preds = %31
  store i8 126, ptr %.014.i, align 1, !tbaa !13
  %36 = getelementptr inbounds nuw i8, ptr %.pn, i64 2
  store i8 48, ptr %36, align 1, !tbaa !13
  br label %38

37:                                               ; preds = %31
  store i8 %32, ptr %.014.i, align 1, !tbaa !13
  br label %38

38:                                               ; preds = %37, %35, %33
  %.1.i34 = phi ptr [ %34, %33 ], [ %36, %35 ], [ %.014.i, %37 ]
  %39 = getelementptr inbounds nuw i8, ptr %.0.i33, i64 1
  br label %31

encode_string_as_pointer.exit:                    ; preds = %31
  store i8 0, ptr %.014.i, align 1, !tbaa !13
  %40 = tail call ptr @cJSON_CreateString(ptr noundef nonnull %28) #13
  %41 = tail call i32 @cJSON_AddItemToObject(ptr noundef nonnull %10, ptr noundef nonnull @.str.2, ptr noundef %40) #13
  tail call void @cJSON_free(ptr noundef nonnull %28) #13
  br label %42

42:                                               ; preds = %encode_string_as_pointer.exit, %16
  %.not = icmp eq ptr %4, null
  br i1 %.not, label %46, label %43

43:                                               ; preds = %42
  %44 = tail call ptr @cJSON_Duplicate(ptr noundef nonnull %4, i32 noundef 1) #13
  %45 = tail call i32 @cJSON_AddItemToObject(ptr noundef nonnull %10, ptr noundef nonnull @.str.3, ptr noundef %44) #13
  br label %46

46:                                               ; preds = %43, %42
  %47 = tail call i32 @cJSON_AddItemToArray(ptr noundef %0, ptr noundef nonnull %10) #13
  br label %48

48:                                               ; preds = %9, %5, %46
  ret void
}